; Function Attrs: nounwind uwtable
define ptr @l_Lean_PrettyPrinter_Formatter_categoryFormatterCore___lambda__3___boxed(ptr noundef %0, ptr noundef %1, ptr noundef %2, ptr noundef %3, ptr noundef %4, ptr noundef %5) #0 {
  %7 = tail call ptr @l___private_Lean_PrettyPrinter_Formatter_0__Lean_PrettyPrinter_Formatter_push(ptr noundef %0, ptr readnone poison, ptr noundef %2, ptr readnone poison, ptr readnone poison, ptr noundef %5)
  %8 = getelementptr inbounds nuw i8, ptr %7, i64 16
  %9 = load ptr, ptr %8, align 8, !tbaa !4
  %10 = ptrtoint ptr %9 to i64
  %11 = and i64 %10, 1
  %.not.i20 = icmp eq i64 %11, 0
  br i1 %.not.i20, label %12, label %lean_inc.exit.i

12:                                               ; preds = %6
  %.val.i.i = load i32, ptr %9, align 4, !tbaa !8
  %13 = icmp sgt i32 %.val.i.i, 0
  br i1 %13, label %14, label %16, !prof !11

14:                                               ; preds = %12
  %15 = add nuw i32 %.val.i.i, 1
  store i32 %15, ptr %9, align 4, !tbaa !8
  br label %lean_inc.exit.i

16:                                               ; preds = %12
  %.not.i14.i = icmp eq i32 %.val.i.i, 0
  br i1 %.not.i14.i, label %lean_inc.exit.i, label %17

17:                                               ; preds = %16
  tail call void @lean_inc_ref_cold(ptr noundef nonnull %9) #6
  br label %lean_inc.exit.i

lean_inc.exit.i:                                  ; preds = %17, %16, %14, %6
  %18 = ptrtoint ptr %7 to i64
  %19 = and i64 %18, 1
  %.not15.i = icmp eq i64 %19, 0
  br i1 %.not15.i, label %20, label %l_Lean_PrettyPrinter_Formatter_categoryFormatterCore___lambda__3.exit

20:                                               ; preds = %lean_inc.exit.i
  %21 = load i32, ptr %7, align 4, !tbaa !8
  %22 = icmp sgt i32 %21, 1
  br i1 %22, label %23, label %25, !prof !11

23:                                               ; preds = %20
  %24 = add nsw i32 %21, -1
  store i32 %24, ptr %7, align 4, !tbaa !8
  br label %l_Lean_PrettyPrinter_Formatter_categoryFormatterCore___lambda__3.exit

25:                                               ; preds = %20
  %.not.i.i = icmp eq i32 %21, 0
  br i1 %.not.i.i, label %l_Lean_PrettyPrinter_Formatter_categoryFormatterCore___lambda__3.exit, label %26

26:                                               ; preds = %25
  tail call void @lean_dec_ref_cold(ptr noundef nonnull %7) #6
  br label %l_Lean_PrettyPrinter_Formatter_categoryFormatterCore___lambda__3.exit

l_Lean_PrettyPrinter_Formatter_categoryFormatterCore___lambda__3.exit: ; preds = %lean_inc.exit.i, %23, %25, %26
  %27 = tail call ptr @l_Lean_Syntax_MonadTraverser_goLeft___at_Lean_PrettyPrinter_Formatter_visitArgs___spec__4___rarg(ptr noundef %2, ptr readnone poison, ptr readnone poison, ptr noundef %9)
  %28 = ptrtoint ptr %4 to i64
  %29 = and i64 %28, 1
  %.not = icmp eq i64 %29, 0
  br i1 %.not, label %30, label %lean_dec.exit13

30:                                               ; preds = %l_Lean_PrettyPrinter_Formatter_categoryFormatterCore___lambda__3.exit
  %31 = load i32, ptr %4, align 4, !tbaa !8
  %32 = icmp sgt i32 %31, 1
  br i1 %32, label %33, label %35, !prof !11

33:                                               ; preds = %30
  %34 = add nsw i32 %31, -1
  store i32 %34, ptr %4, align 4, !tbaa !8
  br label %lean_dec.exit13

35:                                               ; preds = %30
  %.not.i = icmp eq i32 %31, 0
  br i1 %.not.i, label %lean_dec.exit13, label %36

36:                                               ; preds = %35
  tail call void @lean_dec_ref_cold(ptr noundef nonnull %4) #6
  br label %lean_dec.exit13

lean_dec.exit13:                                  ; preds = %36, %35, %33, %l_Lean_PrettyPrinter_Formatter_categoryFormatterCore___lambda__3.exit
  %37 = ptrtoint ptr %3 to i64
  %38 = and i64 %37, 1
  %.not21 = icmp eq i64 %38, 0
  br i1 %.not21, label %39, label %lean_dec.exit12

39:                                               ; preds = %lean_dec.exit13
  %40 = load i32, ptr %3, align 4, !tbaa !8
  %41 = icmp sgt i32 %40, 1
  br i1 %41, label %42, label %44, !prof !11

42:                                               ; preds = %39
  %43 = add nsw i32 %40, -1
  store i32 %43, ptr %3, align 4, !tbaa !8
  br label %lean_dec.exit12

44:                                               ; preds = %39
  %.not.i14 = icmp eq i32 %40, 0
  br i1 %.not.i14, label %lean_dec.exit12, label %45

45:                                               ; preds = %44
  tail call void @lean_dec_ref_cold(ptr noundef nonnull %3) #6
  br label %lean_dec.exit12

lean_dec.exit12:                                  ; preds = %45, %44, %42, %lean_dec.exit13
  %46 = ptrtoint ptr %2 to i64
  %47 = and i64 %46, 1
  %.not22 = icmp eq i64 %47, 0
  br i1 %.not22, label %48, label %lean_dec.exit11

48:                                               ; preds = %lean_dec.exit12
  %49 = load i32, ptr %2, align 4, !tbaa !8
  %50 = icmp sgt i32 %49, 1
  br i1 %50, label %51, label %53, !prof !11

51:                                               ; preds = %48
  %52 = add nsw i32 %49, -1
  store i32 %52, ptr %2, align 4, !tbaa !8
  br label %lean_dec.exit11

53:                                               ; preds = %48
  %.not.i16 = icmp eq i32 %49, 0
  br i1 %.not.i16, label %lean_dec.exit11, label %54

54:                                               ; preds = %53
  tail call void @lean_dec_ref_cold(ptr noundef nonnull %2) #6
  br label %lean_dec.exit11

lean_dec.exit11:                                  ; preds = %54, %53, %51, %lean_dec.exit12
  %55 = ptrtoint ptr %1 to i64
  %56 = and i64 %55, 1
  %.not23 = icmp eq i64 %56, 0
  br i1 %.not23, label %57, label %lean_dec.exit

57:                                               ; preds = %lean_dec.exit11
  %58 = load i32, ptr %1, align 4, !tbaa !8
  %59 = icmp sgt i32 %58, 1
  br i1 %59, label %60, label %62, !prof !11

60:                                               ; preds = %57
  %61 = add nsw i32 %58, -1
  store i32 %61, ptr %1, align 4, !tbaa !8
  br label %lean_dec.exit

62:                                               ; preds = %57
  %.not.i18 = icmp eq i32 %58, 0
  br i1 %.not.i18, label %lean_dec.exit, label %63

63:                                               ; preds = %62
  tail call void @lean_dec_ref_cold(ptr noundef nonnull %1) #6
  br label %lean_dec.exit

lean_dec.exit:                                    ; preds = %63, %62, %60, %lean_dec.exit11
  ret ptr %27
}